; Function Attrs: mustprogress nofree norecurse nosync nounwind willreturn memory(argmem: write) uwtable
define void @_ZN6Assimp16ExportPropertiesC2Ev(ptr noundef nonnull align 8 dereferenceable(240) initializes((8, 12), (16, 24)) %0) unnamed_addr #17 align 2 personality ptr @__gxx_personality_v0 {
  %2 = getelementptr inbounds nuw i8, ptr %0, i64 8
  store i32 0, ptr %2, align 8
  %3 = getelementptr inbounds nuw i8, ptr %0, i64 16
  store ptr null, ptr %3, align 8
  %4 = getelementptr inbounds nuw i8, ptr %0, i64 24
  store ptr %2, ptr %4, align 8
  %5 = getelementptr inbounds nuw i8, ptr %0, i64 32
  store ptr %2, ptr %5, align 8
  %6 = getelementptr inbounds nuw i8, ptr %0, i64 40
  store i64 0, ptr %6, align 8
  %7 = getelementptr inbounds nuw i8, ptr %0, i64 56
  store i32 0, ptr %7, align 8
  %8 = getelementptr inbounds nuw i8, ptr %0, i64 64
  store ptr null, ptr %8, align 8
  %9 = getelementptr inbounds nuw i8, ptr %0, i64 72
  store ptr %7, ptr %9, align 8
  %10 = getelementptr inbounds nuw i8, ptr %0, i64 80
  store ptr %7, ptr %10, align 8
  %11 = getelementptr inbounds nuw i8, ptr %0, i64 88
  store i64 0, ptr %11, align 8
  %12 = getelementptr inbounds nuw i8, ptr %0, i64 104
  store i32 0, ptr %12, align 8
  %13 = getelementptr inbounds nuw i8, ptr %0, i64 112
  store ptr null, ptr %13, align 8
  %14 = getelementptr inbounds nuw i8, ptr %0, i64 120
  store ptr %12, ptr %14, align 8
  %15 = getelementptr inbounds nuw i8, ptr %0, i64 128
  store ptr %12, ptr %15, align 8
  %16 = getelementptr inbounds nuw i8, ptr %0, i64 136
  store i64 0, ptr %16, align 8
  %17 = getelementptr inbounds nuw i8, ptr %0, i64 152
  store i32 0, ptr %17, align 8
  %18 = getelementptr inbounds nuw i8, ptr %0, i64 160
  store ptr null, ptr %18, align 8
  %19 = getelementptr inbounds nuw i8, ptr %0, i64 168
  store ptr %17, ptr %19, align 8
  %20 = getelementptr inbounds nuw i8, ptr %0, i64 176
  store ptr %17, ptr %20, align 8
  %21 = getelementptr inbounds nuw i8, ptr %0, i64 184
  store i64 0, ptr %21, align 8
  %22 = getelementptr inbounds nuw i8, ptr %0, i64 200
  store i32 0, ptr %22, align 8
  %23 = getelementptr inbounds nuw i8, ptr %0, i64 208
  store ptr null, ptr %23, align 8
  %24 = getelementptr inbounds nuw i8, ptr %0, i64 216
  store ptr %22, ptr %24, align 8
  %25 = getelementptr inbounds nuw i8, ptr %0, i64 224
  store ptr %22, ptr %25, align 8
  %26 = getelementptr inbounds nuw i8, ptr %0, i64 232
  store i64 0, ptr %26, align 8
  ret void
}